libqtxdg.so.1 libqtxdg1 #MINVER#
 _Z10doUnEscapeR7QStringRK5QHashI5QCharS2_E@Base 1.0.0
 _Z10escapeExecR7QString@Base 1.0.0
 _Z10replaceVarR7QStringRKS_S2_@Base 1.0.0
 _Z10xdgDirListRK7QStringS1_@Base 1.0.0
 _Z11childsCountRK11QDomElement@Base 1.0.0
 _Z12checkTryExecRK7QString@Base 1.0.0
 _Z12unEscapeExecR7QString@Base 1.0.0
 _Z12xdgSingleDirRK7QStringS1_b@Base 1.0.0
 _Z15findDesktopFileRK7QString@Base 1.0.0
 _Z15findDesktopFileRK7QStringS1_@Base 1.0.0
 _Z15getFileMimeTypeRK9QFileInfob@Base 1.0.0
 _Z15readDesktopFileR9QIODeviceR4QMapI7QString8QVariantE@Base 1.0.0
 _Z16expandDynamicUrl7QString@Base 1.0.0
 _Z16fixBashShortcutsR7QString@Base 1.0.0
 _Z16loadMimeCacheDirRK7QStringR5QHashIS_5QListIP14XdgDesktopFileEE@Base 1.0.0
 _Z16writeDesktopFileR9QIODeviceRK4QMapI7QString8QVariantE@Base 1.0.0
 _Z17loadMimeInfoCacheR4QMapI7QStringS_IS0_P11XdgMimeInfoEE@Base 1.0.0
 _Z18expandEnvVariables11QStringList@Base 1.0.0
 _Z18expandEnvVariables7QString@Base 1.0.0
 _Z18installTranslationRK7QString@Base 1.0.0
 _Z20findLastElementByTag11QDomElement7QString@Base 1.0.0
 _Z23qStringComparisonHelperRK7QStringPKc@Base 1.0.0
 _Z6escapeR7QString@Base 1.0.0
 _Z8doEscapeR7QStringRK5QHashI5QCharS2_E@Base 1.0.0
 _Z8isParentRK11QDomElementS1_@Base 1.0.0
 _Z8unEscapeR7QString@Base 1.0.0
 _ZN10QByteArrayD1Ev@Base 1.0.0
 _ZN10QByteArrayD2Ev@Base 1.0.0
 _ZN11QLinkedListIP11XdgMenuRuleE13detach_helperEv@Base 1.0.0
 _ZN11QLinkedListIP11XdgMenuRuleE6appendERKS1_@Base 1.0.0
 _ZN11QLinkedListIP18XdgMenuAppFileInfoE13detach_helperEv@Base 1.0.0
 _ZN11QLinkedListIP18XdgMenuAppFileInfoED1Ev@Base 1.0.0
 _ZN11QLinkedListIP18XdgMenuAppFileInfoED2Ev@Base 1.0.0
 _ZN11QLinkedListIP23XdgMenuApplinkProcessorE13detach_helperEv@Base 1.0.0
 _ZN11QLinkedListIP23XdgMenuApplinkProcessorED1Ev@Base 1.0.0
 _ZN11QLinkedListIP23XdgMenuApplinkProcessorED2Ev@Base 1.0.0
 _ZN11XdgMenuRule11qt_metacallEN11QMetaObject4CallEiPPv@Base 1.0.0
 _ZN11XdgMenuRule11qt_metacastEPKc@Base 1.0.0
 _ZN11XdgMenuRule16staticMetaObjectE@Base 1.0.0
 _ZN11XdgMenuRuleC1ERK11QDomElementP7QObject@Base 1.0.0
 _ZN11XdgMenuRuleC2ERK11QDomElementP7QObject@Base 1.0.0
 _ZN11XdgMenuRuleD0Ev@Base 1.0.0
 _ZN11XdgMenuRuleD1Ev@Base 1.0.0
 _ZN11XdgMenuRuleD2Ev@Base 1.0.0
 _ZN11XdgMimeData7readXmlEP9QIODevice@Base 1.0.0
 _ZN11XdgMimeDataC1E7QStringS0_@Base 1.0.0
 _ZN11XdgMimeDataC2E7QStringS0_@Base 1.0.0
 _ZN11XdgMimeInfo10loadFromDbEP9QIODevice@Base 1.0.0
 _ZN11XdgMimeInfoC1ERK7QString@Base 1.0.0
 _ZN11XdgMimeInfoC1ERK9QFileInfob@Base 1.0.0
 _ZN11XdgMimeInfoC2ERK7QString@Base 1.0.0
 _ZN11XdgMimeInfoC2ERK9QFileInfob@Base 1.0.0
 _ZN11XdgMimeInfoD1Ev@Base 1.0.0
 _ZN11XdgMimeInfoD2Ev@Base 1.0.0
 _ZN12XdgAutoStart15desktopFileListE11QStringListb@Base 1.0.0
 _ZN12XdgAutoStart15desktopFileListEb@Base 1.0.0
 _ZN12XdgAutoStart9localPathERK14XdgDesktopFile@Base 1.0.0
 _ZN12XdgMenuRules10addExcludeERK11QDomElement@Base 1.0.0
 _ZN12XdgMenuRules10addIncludeERK11QDomElement@Base 1.0.0
 _ZN12XdgMenuRules11qt_metacallEN11QMetaObject4CallEiPPv@Base 1.0.0
 _ZN12XdgMenuRules11qt_metacastEPKc@Base 1.0.0
 _ZN12XdgMenuRules12checkExcludeERK7QStringRK14XdgDesktopFile@Base 1.0.0
 _ZN12XdgMenuRules12checkIncludeERK7QStringRK14XdgDesktopFile@Base 1.0.0
 _ZN12XdgMenuRules16staticMetaObjectE@Base 1.0.0
 _ZN12XdgMenuRulesC1EP7QObject@Base 1.0.0
 _ZN12XdgMenuRulesC2EP7QObject@Base 1.0.0
 _ZN12XdgMenuRulesD0Ev@Base 1.0.0
 _ZN12XdgMenuRulesD1Ev@Base 1.0.0
 _ZN12XdgMenuRulesD2Ev@Base 1.0.0
 _ZN13XdgMenuReader11qt_metacallEN11QMetaObject4CallEiPPv@Base 1.0.0
 _ZN13XdgMenuReader11qt_metacastEPKc@Base 1.0.0
 _ZN13XdgMenuReader16processAppDirTagER11QDomElement@Base 1.0.0
 _ZN13XdgMenuReader16processMergeTagsER11QDomElement@Base 1.0.0
 _ZN13XdgMenuReader16staticMetaObjectE@Base 1.0.0
 _ZN13XdgMenuReader18processMergeDirTagER11QDomElementP11QStringList@Base 1.0.0
 _ZN13XdgMenuReader19processMergeFileTagER11QDomElementP11QStringList@Base 1.0.0
 _ZN13XdgMenuReader22processDirectoryDirTagER11QDomElement@Base 1.0.0
 _ZN13XdgMenuReader24processDefaultAppDirsTagER11QDomElement@Base 1.0.0
 _ZN13XdgMenuReader26processDefaultMergeDirsTagER11QDomElementP11QStringList@Base 1.0.0
 _ZN13XdgMenuReader30processDefaultDirectoryDirsTagER11QDomElement@Base 1.0.0
 _ZN13XdgMenuReader4loadERK7QStringS2_@Base 1.0.0
 _ZN13XdgMenuReader8mergeDirERK7QStringR11QDomElementP11QStringList@Base 1.0.0
 _ZN13XdgMenuReader9addDirTagER11QDomElementRK7QStringS4_@Base 1.0.0
 _ZN13XdgMenuReader9mergeFileERK7QStringR11QDomElementP11QStringList@Base 1.0.0
 _ZN13XdgMenuReaderC1EP7XdgMenuPS_P7QObject@Base 1.0.0
 _ZN13XdgMenuReaderC2EP7XdgMenuPS_P7QObject@Base 1.0.0
 _ZN13XdgMenuReaderD0Ev@Base 1.0.0
 _ZN13XdgMenuReaderD1Ev@Base 1.0.0
 _ZN13XdgMenuReaderD2Ev@Base 1.0.0
 _ZN13XdgMenuRuleOr11qt_metacallEN11QMetaObject4CallEiPPv@Base 1.0.0
 _ZN13XdgMenuRuleOr11qt_metacastEPKc@Base 1.0.0
 _ZN13XdgMenuRuleOr16staticMetaObjectE@Base 1.0.0
 _ZN13XdgMenuRuleOr5checkERK7QStringRK14XdgDesktopFile@Base 1.0.0
 _ZN13XdgMenuRuleOrC1ERK11QDomElementP7QObject@Base 1.0.0
 _ZN13XdgMenuRuleOrC2ERK11QDomElementP7QObject@Base 1.0.0
 _ZN13XdgMenuRuleOrD0Ev@Base 1.0.0
 _ZN13XdgMenuRuleOrD1Ev@Base 1.0.0
 _ZN13XdgMenuRuleOrD2Ev@Base 1.0.0
 _ZN13XdgMenuWidget11qt_metacallEN11QMetaObject4CallEiPPv@Base 1.0.0
 _ZN13XdgMenuWidget11qt_metacastEPKc@Base 1.0.0
 _ZN13XdgMenuWidget16staticMetaObjectE@Base 1.0.0
 _ZN13XdgMenuWidget5eventEP6QEvent@Base 1.0.0
 _ZN13XdgMenuWidgetC1ERK11QDomElementP7QWidget@Base 1.0.0
 _ZN13XdgMenuWidgetC1ERK7XdgMenuRK7QStringP7QWidget@Base 1.0.0
 _ZN13XdgMenuWidgetC1ERKS_P7QWidget@Base 1.0.0
 _ZN13XdgMenuWidgetC2ERK11QDomElementP7QWidget@Base 1.0.0
 _ZN13XdgMenuWidgetC2ERK7XdgMenuRK7QStringP7QWidget@Base 1.0.0
 _ZN13XdgMenuWidgetC2ERKS_P7QWidget@Base 1.0.0
 _ZN13XdgMenuWidgetD0Ev@Base 1.0.0
 _ZN13XdgMenuWidgetD1Ev@Base 1.0.0
 _ZN13XdgMenuWidgetD2Ev@Base 1.0.0
 _ZN13XdgMenuWidgetaSERKS_@Base 1.0.0
 _ZN14XdgDesktopFile11removeEntryERK7QString@Base 1.0.0
 _ZN14XdgDesktopFile17setLocalizedValueERK7QStringRK8QVariant@Base 1.0.0
 _ZN14XdgDesktopFile4loadERK7QString@Base 1.0.0
 _ZN14XdgDesktopFile8setValueERK7QStringRK8QVariant@Base 1.0.0
 _ZN14XdgDesktopFileC1ENS_4TypeERK7QStringS3_@Base 1.0.0
 _ZN14XdgDesktopFileC1ERKS_@Base 1.0.0
 _ZN14XdgDesktopFileC1Ev@Base 1.0.0
 _ZN14XdgDesktopFileC2ENS_4TypeERK7QStringS3_@Base 1.0.0
 _ZN14XdgDesktopFileC2ERKS_@Base 1.0.0
 _ZN14XdgDesktopFileC2Ev@Base 1.0.0
 _ZN14XdgDesktopFileD0Ev@Base 1.0.0
 _ZN14XdgDesktopFileD1Ev@Base 1.0.0
 _ZN14XdgDesktopFileD2Ev@Base 1.0.0
 _ZN14XdgDesktopFileaSERKS_@Base 1.0.0
 _ZN14XdgMenuPrivate10mergeMenusER11QDomElement@Base 1.0.0
 _ZN14XdgMenuPrivate11deleteEmptyER11QDomElement@Base 1.0.0
 _ZN14XdgMenuPrivate11processAppsER11QDomElement@Base 1.0.0
 _ZN14XdgMenuPrivate11qt_metacallEN11QMetaObject4CallEiPPv@Base 1.0.0
 _ZN14XdgMenuPrivate11qt_metacastEPKc@Base 1.0.0
 _ZN14XdgMenuPrivate12appendChildsER11QDomElementS1_@Base 1.0.0
 _ZN14XdgMenuPrivate12clearWatcherEv@Base 1.0.0
 _ZN14XdgMenuPrivate13fixSeparatorsER11QDomElement@Base 1.0.0
 _ZN14XdgMenuPrivate13prependChildsER11QDomElementS1_@Base 1.0.0
 _ZN14XdgMenuPrivate14processLayoutsER11QDomElement@Base 1.0.0
 _ZN14XdgMenuPrivate16staticMetaObjectE@Base 1.0.0
 _ZN14XdgMenuPrivate17loadDirectoryFileERK7QStringR11QDomElement@Base 1.0.0
 _ZN14XdgMenuPrivate18deleteDeletedMenusER11QDomElement@Base 1.0.0
 _ZN14XdgMenuPrivate23processDirectoryEntriesER11QDomElementRK11QStringList@Base 1.0.0
 _ZN14XdgMenuPrivate4loadERK7QString@Base 1.0.0
 _ZN14XdgMenuPrivate7changedEv@Base 1.0.0
 _ZN14XdgMenuPrivate7rebuildEv@Base 1.0.0
 _ZN14XdgMenuPrivate7saveLogERK7QString@Base 1.0.0
 _ZN14XdgMenuPrivate8simplifyER11QDomElement@Base 1.0.0
 _ZN14XdgMenuPrivate9moveMenusER11QDomElement@Base 1.0.0
 _ZN14XdgMenuPrivateC1EP7XdgMenu@Base 1.0.0
 _ZN14XdgMenuPrivateC2EP7XdgMenu@Base 1.0.0
 _ZN14XdgMenuPrivateD0Ev@Base 1.0.0
 _ZN14XdgMenuPrivateD1Ev@Base 1.0.0
 _ZN14XdgMenuPrivateD2Ev@Base 1.0.0
 _ZN14XdgMenuRuleAll11qt_metacallEN11QMetaObject4CallEiPPv@Base 1.0.0
 _ZN14XdgMenuRuleAll11qt_metacastEPKc@Base 1.0.0
 _ZN14XdgMenuRuleAll16staticMetaObjectE@Base 1.0.0
 _ZN14XdgMenuRuleAll5checkERK7QStringRK14XdgDesktopFile@Base 1.0.0
 _ZN14XdgMenuRuleAllC1ERK11QDomElementP7QObject@Base 1.0.0
 _ZN14XdgMenuRuleAllC2ERK11QDomElementP7QObject@Base 1.0.0
 _ZN14XdgMenuRuleAllD0Ev@Base 1.0.0
 _ZN14XdgMenuRuleAllD1Ev@Base 1.0.0
 _ZN14XdgMenuRuleAllD2Ev@Base 1.0.0
 _ZN14XdgMenuRuleAnd11qt_metacallEN11QMetaObject4CallEiPPv@Base 1.0.0
 _ZN14XdgMenuRuleAnd11qt_metacastEPKc@Base 1.0.0
 _ZN14XdgMenuRuleAnd16staticMetaObjectE@Base 1.0.0
 _ZN14XdgMenuRuleAnd5checkERK7QStringRK14XdgDesktopFile@Base 1.0.0
 _ZN14XdgMenuRuleAndC1ERK11QDomElementP7QObject@Base 1.0.0
 _ZN14XdgMenuRuleAndC2ERK11QDomElementP7QObject@Base 1.0.0
 _ZN14XdgMenuRuleAndD0Ev@Base 1.0.0
 _ZN14XdgMenuRuleAndD1Ev@Base 1.0.0
 _ZN14XdgMenuRuleAndD2Ev@Base 1.0.0
 _ZN14XdgMenuRuleNot11qt_metacallEN11QMetaObject4CallEiPPv@Base 1.0.0
 _ZN14XdgMenuRuleNot11qt_metacastEPKc@Base 1.0.0
 _ZN14XdgMenuRuleNot16staticMetaObjectE@Base 1.0.0
 _ZN14XdgMenuRuleNot5checkERK7QStringRK14XdgDesktopFile@Base 1.0.0
 _ZN14XdgMenuRuleNotC1ERK11QDomElementP7QObject@Base 1.0.0
 _ZN14XdgMenuRuleNotC2ERK11QDomElementP7QObject@Base 1.0.0
 _ZN14XdgMenuRuleNotD0Ev@Base 1.0.0
 _ZN14XdgMenuRuleNotD1Ev@Base 1.0.0
 _ZN14XdgMenuRuleNotD2Ev@Base 1.0.0
 _ZN16XdgMimeInfoCache10mediatypesEv@Base 1.0.0
 _ZN16XdgMimeInfoCache11xdgMimeInfoERK7QString@Base 1.0.0
 _ZN16XdgMimeInfoCache11xdgMimeInfoERK7QStringS2_@Base 1.0.0
 _ZN16XdgMimeInfoCache5cacheEv@Base 1.0.0
 _ZN16XdgMimeInfoCache8subtypesERK7QString@Base 1.0.0
 _ZN18DomElementIteratorD1Ev@Base 1.0.0
 _ZN18DomElementIteratorD2Ev@Base 1.0.0
 _ZN18QSharedDataPointerI18XdgDesktopFileDataE13detach_helperEv@Base 1.0.0
 _ZN18QSharedDataPointerI18XdgDesktopFileDataED1Ev@Base 1.0.0
 _ZN18QSharedDataPointerI18XdgDesktopFileDataED2Ev@Base 1.0.0
 _ZN18XdgDesktopFileData4readERK7QString@Base 1.0.0
 _ZN18XdgDesktopFileDataC1Ev@Base 1.0.0
 _ZN18XdgDesktopFileDataC2Ev@Base 1.0.0
 _ZN18XdgMenuAppFileInfo11qt_metacallEN11QMetaObject4CallEiPPv@Base 1.0.0
 _ZN18XdgMenuAppFileInfo11qt_metacastEPKc@Base 1.0.0
 _ZN18XdgMenuAppFileInfo16staticMetaObjectE@Base 1.0.0
 _ZN18XdgMenuAppFileInfoD0Ev@Base 1.0.0
 _ZN18XdgMenuAppFileInfoD1Ev@Base 1.0.0
 _ZN18XdgMenuAppFileInfoD2Ev@Base 1.0.0
 _ZN19XdgDesktopFileCache10initializeERK7QString@Base 1.0.0
 _ZN19XdgDesktopFileCache10initializeEv@Base 1.0.0
 _ZN19XdgDesktopFileCache11getAllFilesEv@Base 1.0.0
 _ZN19XdgDesktopFileCache13getDefaultAppERK7QString@Base 1.0.0
 _ZN19XdgDesktopFileCache25desktopFileSettingsFormatEv@Base 1.0.0
 _ZN19XdgDesktopFileCache4loadERK7QString@Base 1.0.0
 _ZN19XdgDesktopFileCache7getAppsERK7QString@Base 1.0.0
 _ZN19XdgDesktopFileCache7getFileERK7QString@Base 1.0.0
 _ZN19XdgDesktopFileCache8instanceEv@Base 1.0.0
 _ZN19XdgDesktopFileCacheC1Ev@Base 1.0.0
 _ZN19XdgDesktopFileCacheC2Ev@Base 1.0.0
 _ZN19XdgDesktopFileCacheD1Ev@Base 1.0.0
 _ZN19XdgDesktopFileCacheD2Ev@Base 1.0.0
 _ZN19XdgMenuRuleCategory11qt_metacallEN11QMetaObject4CallEiPPv@Base 1.0.0
 _ZN19XdgMenuRuleCategory11qt_metacastEPKc@Base 1.0.0
 _ZN19XdgMenuRuleCategory16staticMetaObjectE@Base 1.0.0
 _ZN19XdgMenuRuleCategory5checkERK7QStringRK14XdgDesktopFile@Base 1.0.0
 _ZN19XdgMenuRuleCategoryC1ERK11QDomElementP7QObject@Base 1.0.0
 _ZN19XdgMenuRuleCategoryC2ERK11QDomElementP7QObject@Base 1.0.0
 _ZN19XdgMenuRuleCategoryD0Ev@Base 1.0.0
 _ZN19XdgMenuRuleCategoryD1Ev@Base 1.0.0
 _ZN19XdgMenuRuleCategoryD2Ev@Base 1.0.0
 _ZN19XdgMenuRuleFileName11qt_metacallEN11QMetaObject4CallEiPPv@Base 1.0.0
 _ZN19XdgMenuRuleFileName11qt_metacastEPKc@Base 1.0.0
 _ZN19XdgMenuRuleFileName16staticMetaObjectE@Base 1.0.0
 _ZN19XdgMenuRuleFileName5checkERK7QStringRK14XdgDesktopFile@Base 1.0.0
 _ZN19XdgMenuRuleFileNameC1ERK11QDomElementP7QObject@Base 1.0.0
 _ZN19XdgMenuRuleFileNameC2ERK11QDomElementP7QObject@Base 1.0.0
 _ZN19XdgMenuRuleFileNameD0Ev@Base 1.0.0
 _ZN19XdgMenuRuleFileNameD1Ev@Base 1.0.0
 _ZN19XdgMenuRuleFileNameD2Ev@Base 1.0.0
 _ZN20QGlobalStaticDeleterI6QCacheI7QString5QIconEED1Ev@Base 1.0.0
 _ZN20QGlobalStaticDeleterI6QCacheI7QString5QIconEED2Ev@Base 1.0.0
 _ZN20QGlobalStaticDeleterIN5QtXdg11QIconLoaderEED1Ev@Base 1.0.0
 _ZN20QGlobalStaticDeleterIN5QtXdg11QIconLoaderEED2Ev@Base 1.0.0
 _ZN20XdgMenuWidgetPrivate12createActionERK11QDomElement@Base 1.0.0
 _ZN20XdgMenuWidgetPrivate14mouseMoveEventEP11QMouseEvent@Base 1.0.0
 _ZN20XdgMenuWidgetPrivate4initERK11QDomElement@Base 1.0.0
 _ZN20XdgMenuWidgetPrivate6escapeE7QString@Base 1.0.0
 _ZN20XdgMenuWidgetPrivate9buildMenuEv@Base 1.0.0
 _ZN22XdgMenuLayoutProcessor15processMergeTagERK11QDomElement@Base 1.0.0
 _ZN22XdgMenuLayoutProcessor18processFilenameTagERK11QDomElement@Base 1.0.0
 _ZN22XdgMenuLayoutProcessor18processMenunameTagERK11QDomElement@Base 1.0.0
 _ZN22XdgMenuLayoutProcessor19processSeparatorTagERK11QDomElement@Base 1.0.0
 _ZN22XdgMenuLayoutProcessor3runEv@Base 1.0.0
 _ZN22XdgMenuLayoutProcessor9setParamsE11QDomElementP12LayoutParams@Base 1.0.0
 _ZN22XdgMenuLayoutProcessorC1ER11QDomElement@Base 1.0.0
 _ZN22XdgMenuLayoutProcessorC1ER11QDomElementPS_@Base 1.0.0
 _ZN22XdgMenuLayoutProcessorC2ER11QDomElement@Base 1.0.0
 _ZN22XdgMenuLayoutProcessorC2ER11QDomElementPS_@Base 1.0.0
 _ZN23XdgMenuApplinkProcessor11createRulesEv@Base 1.0.0
 _ZN23XdgMenuApplinkProcessor11qt_metacallEN11QMetaObject4CallEiPPv@Base 1.0.0
 _ZN23XdgMenuApplinkProcessor11qt_metacastEPKc@Base 1.0.0
 _ZN23XdgMenuApplinkProcessor12checkTryExecERK7QString@Base 1.0.0
 _ZN23XdgMenuApplinkProcessor16findDesktopFilesERK7QStringS2_@Base 1.0.0
 _ZN23XdgMenuApplinkProcessor16staticMetaObjectE@Base 1.0.0
 _ZN23XdgMenuApplinkProcessor19fillAppFileInfoListEv@Base 1.0.0
 _ZN23XdgMenuApplinkProcessor3runEv@Base 1.0.0
 _ZN23XdgMenuApplinkProcessor5step1Ev@Base 1.0.0
 _ZN23XdgMenuApplinkProcessor5step2Ev@Base 1.0.0
 _ZN23XdgMenuApplinkProcessorC1ER11QDomElementP7XdgMenuPS_@Base 1.0.0
 _ZN23XdgMenuApplinkProcessorC2ER11QDomElementP7XdgMenuPS_@Base 1.0.0
 _ZN23XdgMenuApplinkProcessorD0Ev@Base 1.0.0
 _ZN23XdgMenuApplinkProcessorD1Ev@Base 1.0.0
 _ZN23XdgMenuApplinkProcessorD2Ev@Base 1.0.0
 _ZN25MutableDomElementIteratorD1Ev@Base 1.0.0
 _ZN25MutableDomElementIteratorD2Ev@Base 1.0.0
 _ZN4QMapI7QString11QDomElementE13detach_helperEv@Base 1.0.0
 _ZN4QMapI7QString11QDomElementED1Ev@Base 1.0.0
 _ZN4QMapI7QString11QDomElementED2Ev@Base 1.0.0
 _ZN4QMapI7QString8QVariantE11node_createEP8QMapDataPPNS3_4NodeERKS0_RKS1_@Base 1.0.0
 _ZN4QMapI7QString8QVariantE13detach_helperEv@Base 1.0.0
 _ZN4QMapI7QString8QVariantE6removeERKS0_@Base 1.0.0
 _ZN4QMapI7QStringP11XdgMimeInfoE13detach_helperEv@Base 1.0.0
 _ZN4QMapI7QStringP11XdgMimeInfoED1Ev@Base 1.0.0
 _ZN4QMapI7QStringP11XdgMimeInfoED2Ev@Base 1.0.0
 _ZN4QMapI7QStringS0_E13detach_helperEv@Base 1.0.0
 _ZN4QMapI7QStringS0_ED1Ev@Base 1.0.0
 _ZN4QMapI7QStringS0_ED2Ev@Base 1.0.0
 _ZN4QMapI7QStringS_IS0_P11XdgMimeInfoEE13detach_helperEv@Base 1.0.0
 _ZN4QMapI7QStringS_IS0_P11XdgMimeInfoEED1Ev@Base 1.0.0
 _ZN4QMapI7QStringS_IS0_P11XdgMimeInfoEED2Ev@Base 1.0.0
 _ZN5QHashI5QCharS0_E11deleteNode2EPN9QHashData4NodeE@Base 1.0.0
 _ZN5QHashI5QCharS0_E13detach_helperEv@Base 1.0.0
 _ZN5QHashI5QCharS0_E13duplicateNodeEPN9QHashData4NodeEPv@Base 1.0.0
 _ZN5QHashI5QCharS0_E6insertERKS0_S3_@Base 1.0.0
 _ZN5QHashI5QCharS0_ED1Ev@Base 1.0.0
 _ZN5QHashI5QCharS0_ED2Ev@Base 1.0.0
 _ZN5QHashI7QString11QDomElementE11deleteNode2EPN9QHashData4NodeE@Base 1.0.0
 _ZN5QHashI7QString11QDomElementE13duplicateNodeEPN9QHashData4NodeEPv@Base 1.0.0
 _ZN5QHashI7QString15QHashDummyValueE11deleteNode2EPN9QHashData4NodeE@Base 1.0.0
 _ZN5QHashI7QString15QHashDummyValueE13duplicateNodeEPN9QHashData4NodeEPv@Base 1.0.0
 _ZN5QHashI7QString5QListIP14XdgDesktopFileEE11deleteNode2EPN9QHashData4NodeE@Base 1.0.0
 _ZN5QHashI7QString5QListIP14XdgDesktopFileEE13duplicateNodeEPN9QHashData4NodeEPv@Base 1.0.0
 _ZN5QHashI7QString5QListIP14XdgDesktopFileEEixERKS0_@Base 1.0.0
 _ZN5QHashI7QStringN5QtXdg10QIconThemeEE11deleteNode2EPN9QHashData4NodeE@Base 1.0.0
 _ZN5QHashI7QStringN5QtXdg10QIconThemeEE13detach_helperEv@Base 1.0.0
 _ZN5QHashI7QStringN5QtXdg10QIconThemeEE13duplicateNodeEPN9QHashData4NodeEPv@Base 1.0.0
 _ZN5QHashI7QStringN6QCacheIS0_5QIconE4NodeEE11deleteNode2EPN9QHashData4NodeE@Base 1.0.0
 _ZN5QHashI7QStringN6QCacheIS0_5QIconE4NodeEE13detach_helperEv@Base 1.0.0
 _ZN5QHashI7QStringN6QCacheIS0_5QIconE4NodeEE13duplicateNodeEPN9QHashData4NodeEPv@Base 1.0.0
 _ZN5QHashI7QStringN6QCacheIS0_5QIconE4NodeEED1Ev@Base 1.0.0
 _ZN5QHashI7QStringN6QCacheIS0_5QIconE4NodeEED2Ev@Base 1.0.0
 _ZN5QHashI7QStringP14XdgDesktopFileE11deleteNode2EPN9QHashData4NodeE@Base 1.0.0
 _ZN5QHashI7QStringP14XdgDesktopFileE13duplicateNodeEPN9QHashData4NodeEPv@Base 1.0.0
 _ZN5QHashI7QStringP14XdgDesktopFileE6insertERKS0_RKS2_@Base 1.0.0
 _ZN5QHashI7QStringP18XdgMenuAppFileInfoE11deleteNode2EPN9QHashData4NodeE@Base 1.0.0
 _ZN5QHashI7QStringP18XdgMenuAppFileInfoE13detach_helperEv@Base 1.0.0
 _ZN5QHashI7QStringP18XdgMenuAppFileInfoE13duplicateNodeEPN9QHashData4NodeEPv@Base 1.0.0
 _ZN5QHashI7QStringP18XdgMenuAppFileInfoED1Ev@Base 1.0.0
 _ZN5QHashI7QStringP18XdgMenuAppFileInfoED2Ev@Base 1.0.0
 _ZN5QHashI7QStringS0_E11deleteNode2EPN9QHashData4NodeE@Base 1.0.0
 _ZN5QHashI7QStringS0_E13duplicateNodeEPN9QHashData4NodeEPv@Base 1.0.0
 _ZN5QHashI7QStringS0_E6insertERKS0_S3_@Base 1.0.0
 _ZN5QListI14XdgDesktopFileE18detach_helper_growEii@Base 1.0.0
 _ZN5QListI14XdgDesktopFileE6appendERKS0_@Base 1.0.0
 _ZN5QListI4QUrlE18detach_helper_growEii@Base 1.0.0
 _ZN5QListI4QUrlE6appendERKS0_@Base 1.0.0
 _ZN5QListI4QUrlED1Ev@Base 1.0.0
 _ZN5QListI4QUrlED2Ev@Base 1.0.0
 _ZN5QListI5QSizeE18detach_helper_growEii@Base 1.0.0
 _ZN5QListI5QSizeE5clearEv@Base 1.0.0
 _ZN5QListI5QSizeED1Ev@Base 1.0.0
 _ZN5QListI5QSizeED2Ev@Base 1.0.0
 _ZN5QListI7QStringE13detach_helperEi@Base 1.0.0
 _ZN5QListI7QStringE18detach_helper_growEii@Base 1.0.0
 _ZN5QListI7QStringE6appendERKS0_@Base 1.0.0
 _ZN5QListI7QStringE7prependERKS0_@Base 1.0.0
 _ZN5QListI7QStringE7reserveEi@Base 1.0.0
 _ZN5QListI7QStringE9removeAllERKS0_@Base 1.0.0
 _ZN5QListI7QStringEC1ERKS1_@Base 1.0.0
 _ZN5QListI7QStringEC2ERKS1_@Base 1.0.0
 _ZN5QListI7QStringED1Ev@Base 1.0.0
 _ZN5QListI7QStringED2Ev@Base 1.0.0
 _ZN5QListI7QStringEpLERKS1_@Base 1.0.0
 _ZN5QListI9QFileInfoE13detach_helperEi@Base 1.0.0
 _ZN5QListI9QFileInfoED1Ev@Base 1.0.0
 _ZN5QListI9QFileInfoED2Ev@Base 1.0.0
 _ZN5QListIN5QtXdg12QIconDirInfoEE13detach_helperEi@Base 1.0.0
 _ZN5QListIN5QtXdg12QIconDirInfoEE18detach_helper_growEii@Base 1.0.0
 _ZN5QListIN5QtXdg12QIconDirInfoEE6appendERKS1_@Base 1.0.0
 _ZN5QListIN5QtXdg12QIconDirInfoEED1Ev@Base 1.0.0
 _ZN5QListIN5QtXdg12QIconDirInfoEED2Ev@Base 1.0.0
 _ZN5QListIP14XdgDesktopFileE13detach_helperEi@Base 1.0.0
 _ZN5QListIP14XdgDesktopFileE18detach_helper_growEii@Base 1.0.0
 _ZN5QListIP14XdgDesktopFileE6appendERKS1_@Base 1.0.0
 _ZN5QListIP14XdgDesktopFileED1Ev@Base 1.0.0
 _ZN5QListIP14XdgDesktopFileED2Ev@Base 1.0.0
 _ZN5QListIP7QActionED1Ev@Base 1.0.0
 _ZN5QListIP7QActionED2Ev@Base 1.0.0
 _ZN5QListIPN5QtXdg22QIconLoaderEngineEntryEE13detach_helperEi@Base 1.0.0
 _ZN5QListIPN5QtXdg22QIconLoaderEngineEntryEE18detach_helper_growEii@Base 1.0.0
 _ZN5QListIPN5QtXdg22QIconLoaderEngineEntryEE6appendERKS2_@Base 1.0.0
 _ZN5QListIPN5QtXdg22QIconLoaderEngineEntryEE7prependERKS2_@Base 1.0.0
 _ZN5QListIPN5QtXdg22QIconLoaderEngineEntryEED1Ev@Base 1.0.0
 _ZN5QListIPN5QtXdg22QIconLoaderEngineEntryEED2Ev@Base 1.0.0
 _ZN5QtXdg10QIconThemeC1ERK7QString@Base 1.0.0
 _ZN5QtXdg10QIconThemeC2ERK7QString@Base 1.0.0
 _ZN5QtXdg10QIconThemeD1Ev@Base 1.0.0
 _ZN5QtXdg10QIconThemeD2Ev@Base 1.0.0
 _ZN5QtXdg11PixmapEntry6pixmapERK5QSizeN5QIcon4ModeENS4_5StateE@Base 1.0.0
 _ZN5QtXdg11PixmapEntryC1Ev@Base 1.0.0
 _ZN5QtXdg11PixmapEntryC2Ev@Base 1.0.0
 _ZN5QtXdg11PixmapEntryD0Ev@Base 1.0.0
 _ZN5QtXdg11PixmapEntryD1Ev@Base 1.0.0
 _ZN5QtXdg11PixmapEntryD2Ev@Base 1.0.0
 _ZN5QtXdg11QIconLoader12setThemeNameERK7QString@Base 1.0.0
 _ZN5QtXdg11QIconLoader17ensureInitializedEv@Base 1.0.0
 _ZN5QtXdg11QIconLoader17updateSystemThemeEv@Base 1.0.0
 _ZN5QtXdg11QIconLoader18setThemeSearchPathERK11QStringList@Base 1.0.0
 _ZN5QtXdg11QIconLoader8instanceEv@Base 1.0.0
 _ZN5QtXdg11QIconLoaderC1Ev@Base 1.0.0
 _ZN5QtXdg11QIconLoaderC2Ev@Base 1.0.0
 _ZN5QtXdg11QIconLoaderD0Ev@Base 1.0.0
 _ZN5QtXdg11QIconLoaderD1Ev@Base 1.0.0
 _ZN5QtXdg11QIconLoaderD2Ev@Base 1.0.0
 _ZN5QtXdg13ScalableEntry6pixmapERK5QSizeN5QIcon4ModeENS4_5StateE@Base 1.0.0
 _ZN5QtXdg13ScalableEntryC1Ev@Base 1.0.0
 _ZN5QtXdg13ScalableEntryC2Ev@Base 1.0.0
 _ZN5QtXdg13ScalableEntryD0Ev@Base 1.0.0
 _ZN5QtXdg13ScalableEntryD1Ev@Base 1.0.0
 _ZN5QtXdg13ScalableEntryD2Ev@Base 1.0.0
 _ZN5QtXdg22QIconLoaderEngineEntryD0Ev@Base 1.0.0
 _ZN5QtXdg22QIconLoaderEngineEntryD1Ev@Base 1.0.0
 _ZN5QtXdg22QIconLoaderEngineEntryD2Ev@Base 1.0.0
 _ZN5QtXdg22QIconLoaderEngineFixed10actualSizeERK5QSizeN5QIcon4ModeENS4_5StateE@Base 1.0.0
 _ZN5QtXdg22QIconLoaderEngineFixed12ensureLoadedEv@Base 1.0.0
 _ZN5QtXdg22QIconLoaderEngineFixed12entryForSizeERK5QSize@Base 1.0.0
 _ZN5QtXdg22QIconLoaderEngineFixed12virtual_hookEiPv@Base 1.0.0
 _ZN5QtXdg22QIconLoaderEngineFixed4readER11QDataStream@Base 1.0.0
 _ZN5QtXdg22QIconLoaderEngineFixed5paintEP8QPainterRK5QRectN5QIcon4ModeENS6_5StateE@Base 1.0.0
 _ZN5QtXdg22QIconLoaderEngineFixed6pixmapERK5QSizeN5QIcon4ModeENS4_5StateE@Base 1.0.0
 _ZN5QtXdg22QIconLoaderEngineFixedC1ERK7QString@Base 1.0.0
 _ZN5QtXdg22QIconLoaderEngineFixedC1ERKS0_@Base 1.0.0
 _ZN5QtXdg22QIconLoaderEngineFixedC2ERK7QString@Base 1.0.0
 _ZN5QtXdg22QIconLoaderEngineFixedC2ERKS0_@Base 1.0.0
 _ZN5QtXdg22QIconLoaderEngineFixedD0Ev@Base 1.0.0
 _ZN5QtXdg22QIconLoaderEngineFixedD1Ev@Base 1.0.0
 _ZN5QtXdg22QIconLoaderEngineFixedD2Ev@Base 1.0.0
 _ZN6QCacheI7QString5QIconE6insertERKS0_PS1_i@Base 1.0.0
 _ZN6QDebugC1E9QtMsgType@Base 1.0.0
 _ZN6QDebugC2E9QtMsgType@Base 1.0.0
 _ZN6QDebugD1Ev@Base 1.0.0
 _ZN6QDebugD2Ev@Base 1.0.0
 _ZN6QDebuglsEPKc@Base 1.0.0
 _ZN7QStringC1ERKS_@Base 1.0.0
 _ZN7QStringC2ERKS_@Base 1.0.0
 _ZN7QStringD1Ev@Base 1.0.0
 _ZN7QStringD2Ev@Base 1.0.0
 _ZN7QVectorI7QStringE6appendERKS0_@Base 1.0.0
 _ZN7QVectorI7QStringE7reallocEii@Base 1.0.0
 _ZN7XdgDirs10configDirsERK7QString@Base 1.0.0
 _ZN7XdgDirs10configHomeEb@Base 1.0.0
 _ZN7XdgDirs10runtimeDirEv@Base 1.0.0
 _ZN7XdgDirs10setUserDirENS_13UserDirectoryERK7QStringb@Base 1.0.0
 _ZN7XdgDirs13autostartDirsERK7QString@Base 1.0.0
 _ZN7XdgDirs13autostartHomeEb@Base 1.0.0
 _ZN7XdgDirs7userDirENS_13UserDirectoryE@Base 1.0.0
 _ZN7XdgDirs8dataDirsERK7QString@Base 1.0.0
 _ZN7XdgDirs8dataHomeEb@Base 1.0.0
 _ZN7XdgDirs9cacheHomeEb@Base 1.0.0
 _ZN7XdgIcon12setThemeNameERK7QString@Base 1.0.0
 _ZN7XdgIcon22defaultApplicationIconEv@Base 1.0.0
 _ZN7XdgIcon26defaultApplicationIconNameEv@Base 1.0.0
 _ZN7XdgIcon9fromThemeERK11QStringListRK5QIcon@Base 1.0.0
 _ZN7XdgIcon9fromThemeERK7QStringRK5QIcon@Base 1.0.0
 _ZN7XdgIcon9fromThemeERK7QStringS2_S2_S2_S2_@Base 1.0.0
 _ZN7XdgIcon9themeNameEv@Base 1.0.0
 _ZN7XdgIconC1Ev@Base 1.0.0
 _ZN7XdgIconC2Ev@Base 1.0.0
 _ZN7XdgIconD0Ev@Base 1.0.0
 _ZN7XdgIconD1Ev@Base 1.0.0
 _ZN7XdgIconD2Ev@Base 1.0.0
 _ZN7XdgMenu11qt_metacallEN11QMetaObject4CallEiPPv@Base 1.0.0
 _ZN7XdgMenu11qt_metacastEPKc@Base 1.0.0
 _ZN7XdgMenu12addWatchPathERK7QString@Base 1.0.0
 _ZN7XdgMenu12environmentsEv@Base 1.0.0
 _ZN7XdgMenu15getMenuFileNameERK7QString@Base 1.0.0
 _ZN7XdgMenu15setEnvironmentsERK11QStringList@Base 1.0.0
 _ZN7XdgMenu15setEnvironmentsERK7QString@Base 1.0.0
 _ZN7XdgMenu16staticMetaObjectE@Base 1.0.0
 _ZN7XdgMenu4readERK7QString@Base 1.0.0
 _ZN7XdgMenu4saveERK7QString@Base 1.0.0
 _ZN7XdgMenu7changedEv@Base 1.0.0
 _ZN7XdgMenu8findMenuER11QDomElementRK7QStringb@Base 1.0.0
 _ZN7XdgMenu9setLogDirERK7QString@Base 1.0.0
 _ZN7XdgMenuC1EP7QObject@Base 1.0.0
 _ZN7XdgMenuC2EP7QObject@Base 1.0.0
 _ZN7XdgMenuD0Ev@Base 1.0.0
 _ZN7XdgMenuD1Ev@Base 1.0.0
 _ZN7XdgMenuD2Ev@Base 1.0.0
 _ZN9XdgAction10updateIconEv@Base 1.0.0
 _ZN9XdgAction11qt_metacallEN11QMetaObject4CallEiPPv@Base 1.0.0
 _ZN9XdgAction11qt_metacastEPKc@Base 1.0.0
 _ZN9XdgAction16staticMetaObjectE@Base 1.0.0
 _ZN9XdgAction4loadERK14XdgDesktopFile@Base 1.0.0
 _ZN9XdgActionC1EP7QObject@Base 1.0.0
 _ZN9XdgActionC1EPK14XdgDesktopFileP7QObject@Base 1.0.0
 _ZN9XdgActionC1ERK14XdgDesktopFileP7QObject@Base 1.0.0
 _ZN9XdgActionC1ERK7QStringP7QObject@Base 1.0.0
 _ZN9XdgActionC1ERKS_P7QObject@Base 1.0.0
 _ZN9XdgActionC2EP7QObject@Base 1.0.0
 _ZN9XdgActionC2EPK14XdgDesktopFileP7QObject@Base 1.0.0
 _ZN9XdgActionC2ERK14XdgDesktopFileP7QObject@Base 1.0.0
 _ZN9XdgActionC2ERK7QStringP7QObject@Base 1.0.0
 _ZN9XdgActionC2ERKS_P7QObject@Base 1.0.0
 _ZN9XdgActionD0Ev@Base 1.0.0
 _ZN9XdgActionD1Ev@Base 1.0.0
 _ZN9XdgActionD2Ev@Base 1.0.0
 _ZN9XdgActionaSERKS_@Base 1.0.0
 _ZNK11XdgMenuRule10metaObjectEv@Base 1.0.0
 _ZNK11XdgMimeInfo10subClassOfEv@Base 1.0.0
 _ZNK11XdgMimeInfo16localizedCommentEv@Base 1.0.0
 _ZNK11XdgMimeInfo4iconEv@Base 1.0.0
 _ZNK11XdgMimeInfo7commentEv@Base 1.0.0
 _ZNK11XdgMimeInfo7subTypeEv@Base 1.0.0
 _ZNK11XdgMimeInfo8iconNameEv@Base 1.0.0
 _ZNK11XdgMimeInfo8mimeTypeEv@Base 1.0.0
 _ZNK11XdgMimeInfo8patternsEv@Base 1.0.0
 _ZNK11XdgMimeInfo9mediaTypeEv@Base 1.0.0
 _ZNK12XdgMenuRules10metaObjectEv@Base 1.0.0
 _ZNK13XdgMenuReader10metaObjectEv@Base 1.0.0
 _ZNK13XdgMenuRuleOr10metaObjectEv@Base 1.0.0
 _ZNK13XdgMenuWidget10metaObjectEv@Base 1.0.0
 _ZNK14XdgDesktopFile10isSuitableEbRK7QString@Base 1.0.0
 _ZNK14XdgDesktopFile12isApplicableEbRK7QString@Base 1.0.0
 _ZNK14XdgDesktopFile12localizedKeyERK7QString@Base 1.0.0
 _ZNK14XdgDesktopFile13startDetachedERK11QStringList@Base 1.0.0
 _ZNK14XdgDesktopFile13startDetachedERK7QString@Base 1.0.0
 _ZNK14XdgDesktopFile14localizedValueERK7QStringRK8QVariant@Base 1.0.0
 _ZNK14XdgDesktopFile16expandExecStringERK11QStringList@Base 1.0.0
 _ZNK14XdgDesktopFile3urlEv@Base 1.0.0
 _ZNK14XdgDesktopFile4iconERK5QIcon@Base 1.0.0
 _ZNK14XdgDesktopFile4saveEP9QIODevice@Base 1.0.0
 _ZNK14XdgDesktopFile4saveERK7QString@Base 1.0.0
 _ZNK14XdgDesktopFile4typeEv@Base 1.0.0
 _ZNK14XdgDesktopFile5checkEv@Base 1.0.0
 _ZNK14XdgDesktopFile5valueERK7QStringRK8QVariant@Base 1.0.0
 _ZNK14XdgDesktopFile6isShowERK7QString@Base 1.0.0
 _ZNK14XdgDesktopFile6prefixEv@Base 1.0.0
 _ZNK14XdgDesktopFile7isShownERK7QString@Base 1.0.0
 _ZNK14XdgDesktopFile7isValidEv@Base 1.0.0
 _ZNK14XdgDesktopFile8containsERK7QString@Base 1.0.0
 _ZNK14XdgDesktopFile8fileNameEv@Base 1.0.0
 _ZNK14XdgDesktopFile8iconNameEv@Base 1.0.0
 _ZNK14XdgDesktopFileeqERKS_@Base 1.0.0
 _ZNK14XdgMenuPrivate10metaObjectEv@Base 1.0.0
 _ZNK14XdgMenuRuleAll10metaObjectEv@Base 1.0.0
 _ZNK14XdgMenuRuleAnd10metaObjectEv@Base 1.0.0
 _ZNK14XdgMenuRuleNot10metaObjectEv@Base 1.0.0
 _ZNK18XdgDesktopFileData10detectTypeEP14XdgDesktopFile@Base 1.0.0
 _ZNK18XdgDesktopFileData17startLinkDetachedEPK14XdgDesktopFile@Base 1.0.0
 _ZNK18XdgDesktopFileData24startApplicationDetachedEPK14XdgDesktopFileRK11QStringList@Base 1.0.0
 _ZNK18XdgMenuAppFileInfo10metaObjectEv@Base 1.0.0
 _ZNK19XdgMenuRuleCategory10metaObjectEv@Base 1.0.0
 _ZNK19XdgMenuRuleFileName10metaObjectEv@Base 1.0.0
 _ZNK22XdgMenuLayoutProcessor13searchElementERK7QStringS2_S2_@Base 1.0.0
 _ZNK23XdgMenuApplinkProcessor10metaObjectEv@Base 1.0.0
 _ZNK4QMapI7QString8QVariantE15mutableFindNodeEPPN8QMapData4NodeERKS0_@Base 1.0.0
 _ZNK5QHashI5QCharS0_E8findNodeERKS0_Pj@Base 1.0.0
 _ZNK5QHashI7QString11QDomElementE8findNodeERKS0_Pj@Base 1.0.0
 _ZNK5QHashI7QString15QHashDummyValueE8findNodeERKS0_Pj@Base 1.0.0
 _ZNK5QHashI7QString5QListIP14XdgDesktopFileEE8findNodeERKS0_Pj@Base 1.0.0
 _ZNK5QHashI7QStringN5QtXdg10QIconThemeEE8findNodeERKS0_Pj@Base 1.0.0
 _ZNK5QHashI7QStringN6QCacheIS0_5QIconE4NodeEE8findNodeERKS0_Pj@Base 1.0.0
 _ZNK5QHashI7QStringP14XdgDesktopFileE6valuesEv@Base 1.0.0
 _ZNK5QHashI7QStringP14XdgDesktopFileE8findNodeERKS0_Pj@Base 1.0.0
 _ZNK5QHashI7QStringP18XdgMenuAppFileInfoE8findNodeERKS0_Pj@Base 1.0.0
 _ZNK5QHashI7QStringS0_E8findNodeERKS0_Pj@Base 1.0.0
 _ZNK5QtXdg11QIconLoader14findIconHelperERK7QStringS3_R11QStringList@Base 1.0.0
 _ZNK5QtXdg11QIconLoader16themeSearchPathsEv@Base 1.0.0
 _ZNK5QtXdg11QIconLoader8loadIconERK7QString@Base 1.0.0
 _ZNK5QtXdg22QIconLoaderEngineFixed3keyEv@Base 1.0.0
 _ZNK5QtXdg22QIconLoaderEngineFixed5cloneEv@Base 1.0.0
 _ZNK5QtXdg22QIconLoaderEngineFixed5writeER11QDataStream@Base 1.0.0
 _ZNK5QtXdg22QIconLoaderEngineFixed7hasIconEv@Base 1.0.0
 _ZNK7XdgMenu10isOutDatedEv@Base 1.0.0
 _ZNK7XdgMenu10metaObjectEv@Base 1.0.0
 _ZNK7XdgMenu11errorStringEv@Base 1.0.0
 _ZNK7XdgMenu12menuFileNameEv@Base 1.0.0
 _ZNK7XdgMenu3xmlEv@Base 1.0.0
 _ZNK7XdgMenu6logDirEv@Base 1.0.0
 _ZNK9XdgAction10metaObjectEv@Base 1.0.0
 _ZNK9XdgAction11runConmmandEv@Base 1.0.0
 _ZNK9XdgAction7isValidEv@Base 1.0.0
 _ZTI11XdgMenuRule@Base 1.0.0
 _ZTI12XdgMenuRules@Base 1.0.0
 _ZTI13XdgMenuReader@Base 1.0.0
 _ZTI13XdgMenuRuleOr@Base 1.0.0
 _ZTI13XdgMenuWidget@Base 1.0.0
 _ZTI14XdgDesktopFile@Base 1.0.0
 _ZTI14XdgMenuPrivate@Base 1.0.0
 _ZTI14XdgMenuRuleAll@Base 1.0.0
 _ZTI14XdgMenuRuleAnd@Base 1.0.0
 _ZTI14XdgMenuRuleNot@Base 1.0.0
 _ZTI18XdgMenuAppFileInfo@Base 1.0.0
 _ZTI19XdgMenuRuleCategory@Base 1.0.0
 _ZTI19XdgMenuRuleFileName@Base 1.0.0
 _ZTI23XdgMenuApplinkProcessor@Base 1.0.0
 _ZTI7XdgIcon@Base 1.0.0
 _ZTI7XdgMenu@Base 1.0.0
 _ZTI9XdgAction@Base 1.0.0
 _ZTIN5QtXdg11PixmapEntryE@Base 1.0.0
 _ZTIN5QtXdg11QIconLoaderE@Base 1.0.0
 _ZTIN5QtXdg13ScalableEntryE@Base 1.0.0
 _ZTIN5QtXdg22QIconLoaderEngineEntryE@Base 1.0.0
 _ZTIN5QtXdg22QIconLoaderEngineFixedE@Base 1.0.0
 _ZTS11XdgMenuRule@Base 1.0.0
 _ZTS12XdgMenuRules@Base 1.0.0
 _ZTS13XdgMenuReader@Base 1.0.0
 _ZTS13XdgMenuRuleOr@Base 1.0.0
 _ZTS13XdgMenuWidget@Base 1.0.0
 _ZTS14XdgDesktopFile@Base 1.0.0
 _ZTS14XdgMenuPrivate@Base 1.0.0
 _ZTS14XdgMenuRuleAll@Base 1.0.0
 _ZTS14XdgMenuRuleAnd@Base 1.0.0
 _ZTS14XdgMenuRuleNot@Base 1.0.0
 _ZTS18XdgMenuAppFileInfo@Base 1.0.0
 _ZTS19XdgMenuRuleCategory@Base 1.0.0
 _ZTS19XdgMenuRuleFileName@Base 1.0.0
 _ZTS23XdgMenuApplinkProcessor@Base 1.0.0
 _ZTS7XdgIcon@Base 1.0.0
 _ZTS7XdgMenu@Base 1.0.0
 _ZTS9XdgAction@Base 1.0.0
 _ZTSN5QtXdg11PixmapEntryE@Base 1.0.0
 _ZTSN5QtXdg11QIconLoaderE@Base 1.0.0
 _ZTSN5QtXdg13ScalableEntryE@Base 1.0.0
 _ZTSN5QtXdg22QIconLoaderEngineEntryE@Base 1.0.0
 _ZTSN5QtXdg22QIconLoaderEngineFixedE@Base 1.0.0
 _ZTV11XdgMenuRule@Base 1.0.0
 _ZTV12XdgMenuRules@Base 1.0.0
 _ZTV13XdgMenuReader@Base 1.0.0
 _ZTV13XdgMenuRuleOr@Base 1.0.0
 _ZTV13XdgMenuWidget@Base 1.0.0
 _ZTV14XdgDesktopFile@Base 1.0.0
 _ZTV14XdgMenuPrivate@Base 1.0.0
 _ZTV14XdgMenuRuleAll@Base 1.0.0
 _ZTV14XdgMenuRuleAnd@Base 1.0.0
 _ZTV14XdgMenuRuleNot@Base 1.0.0
 _ZTV18XdgMenuAppFileInfo@Base 1.0.0
 _ZTV19XdgMenuRuleCategory@Base 1.0.0
 _ZTV19XdgMenuRuleFileName@Base 1.0.0
 _ZTV23XdgMenuApplinkProcessor@Base 1.0.0
 _ZTV7XdgIcon@Base 1.0.0
 _ZTV7XdgMenu@Base 1.0.0
 _ZTV9XdgAction@Base 1.0.0
 _ZTVN5QtXdg11PixmapEntryE@Base 1.0.0
 _ZTVN5QtXdg11QIconLoaderE@Base 1.0.0
 _ZTVN5QtXdg13ScalableEntryE@Base 1.0.0
 _ZTVN5QtXdg22QIconLoaderEngineEntryE@Base 1.0.0
 _ZTVN5QtXdg22QIconLoaderEngineFixedE@Base 1.0.0
 _ZThn16_N13XdgMenuWidgetD0Ev@Base 1.0.0
 _ZThn16_N13XdgMenuWidgetD1Ev@Base 1.0.0
 _Zls6QDebugRK11QDomElement@Base 1.0.0
 _ZplRK7QStringS1_@Base 1.0.0
